
add.c.S.o:     file format elf64-littleriscv
add.c.S.o
architecture: riscv:rv64, flags 0x00000011:
HAS_RELOC, HAS_SYMS
start address 0x0000000000000000

Sections:
Idx Name              Size      VMA               LMA               File off  Algn  Flags
  0 .text             00000040  0000000000000000  0000000000000000  00000040  2**2  CONTENTS, ALLOC, LOAD, RELOC, READONLY, CODE
  1 .data             00000000  0000000000000000  0000000000000000  00000080  2**0  CONTENTS, ALLOC, LOAD, DATA
  2 .bss              00000000  0000000000000000  0000000000000000  00000080  2**0  ALLOC
  3 .GCC.command.line 000000a6  0000000000000000  0000000000000000  00000080  2**0  CONTENTS, READONLY
  4 .debug_info       00000081  0000000000000000  0000000000000000  00000126  2**0  CONTENTS, RELOC, READONLY, DEBUGGING, OCTETS
  5 .debug_abbrev     0000005f  0000000000000000  0000000000000000  000001a7  2**0  CONTENTS, READONLY, DEBUGGING, OCTETS
  6 .debug_aranges    00000030  0000000000000000  0000000000000000  00000206  2**0  CONTENTS, RELOC, READONLY, DEBUGGING, OCTETS
  7 .debug_line       00000052  0000000000000000  0000000000000000  00000236  2**0  CONTENTS, RELOC, READONLY, DEBUGGING, OCTETS
  8 .debug_str        00000094  0000000000000000  0000000000000000  00000288  2**0  CONTENTS, READONLY, DEBUGGING, OCTETS
  9 .comment          00000013  0000000000000000  0000000000000000  0000031c  2**0  CONTENTS, READONLY
 10 .debug_frame      00000040  0000000000000000  0000000000000000  00000330  2**3  CONTENTS, RELOC, READONLY, DEBUGGING, OCTETS
 11 .riscv.attributes 00000035  0000000000000000  0000000000000000  00000370  2**0  CONTENTS, READONLY
SYMBOL TABLE:
0000000000000000 l    df *ABS*	0000000000000000 add.c
0000000000000000 l    d  .text	0000000000000000 .text
0000000000000000 l    d  .data	0000000000000000 .data
0000000000000000 l    d  .bss	0000000000000000 .bss
0000000000000000 l    d  .GCC.command.line	0000000000000000 .GCC.command.line
0000000000000000 l       .text	0000000000000000 .L0 
0000000000000000 l       .text	0000000000000000 .L0 
0000000000000008 l       .text	0000000000000000 .L0 
0000000000000016 l       .text	0000000000000000 .L0 
0000000000000030 l       .text	0000000000000000 .L0 
0000000000000034 l       .text	0000000000000000 .L0 
0000000000000038 l       .text	0000000000000000 .L0 
000000000000003e l       .text	0000000000000000 .L0 
0000000000000000 l    d  .debug_info	0000000000000000 .debug_info
0000000000000000 l    d  .debug_abbrev	0000000000000000 .debug_abbrev
0000000000000000 l    d  .debug_aranges	0000000000000000 .debug_aranges
0000000000000000 l    d  .debug_line	0000000000000000 .debug_line
0000000000000000 l    d  .debug_str	0000000000000000 .debug_str
000000000000003e l       .text	0000000000000000 .L0 
0000000000000000 l       .debug_frame	0000000000000000 .L0 
0000000000000000 l       .debug_abbrev	0000000000000000 .Ldebug_abbrev0
0000000000000000 l       .debug_str	0000000000000000 .LASF0
000000000000008e l       .debug_str	0000000000000000 .LASF1
0000000000000066 l       .debug_str	0000000000000000 .LASF2
0000000000000000 l       .text	0000000000000000 .Ltext0
000000000000003e l       .text	0000000000000000 .Letext0
0000000000000000 l       .debug_line	0000000000000000 .Ldebug_line0
0000000000000000 l       .text	0000000000000000 .LFB0
000000000000003e l       .text	0000000000000000 .LFE0
0000000000000000 l       .debug_info	0000000000000000 .Ldebug_info0
0000000000000000 l    d  .comment	0000000000000000 .comment
0000000000000000 l    d  .debug_frame	0000000000000000 .debug_frame
0000000000000000 l    d  .riscv.attributes	0000000000000000 .riscv.attributes
0000000000000000 g     F .text	000000000000003e add
0000000000000000         *UND*	0000000000000000 externFunc


Contents of the .debug_frame section:


00000000 000000000000000c ffffffff CIE "" cf=1 df=-4 ra=1
   LOC           CFA      
0000000000000000 sp+0     

00000010 000000000000002c 00000000 FDE cie=00000000 pc=0000000000000000..000000000000003e
   LOC           CFA      ra    s0    
0000000000000000 sp+0     u     u     
0000000000000002 sp+48    u     u     
0000000000000006 sp+48    c-8   c-16  
0000000000000008 s0+0     c-8   c-16  
0000000000000038 s0+0     u     c-16  
000000000000003a sp+48    u     u     
000000000000003c sp+0     u     u     

Contents of section .text:
 0000 797106f4 22f00018 aa872e87 232ef4fc  yq..".......#...
 0010 ba87232c f4fc0327 84fd8327 c4fdba85  ..#,...'...'....
 0020 3e859700 0000e780 0000aa87 2326f4fe  >...........#&..
 0030 8327c4fe 3e85a270 02744561 82800000  .'..>..p.tEa....
Contents of section .GCC.command.line:
 0000 2d696d75 6c74696c 69622072 76363469  -imultilib rv64i
 0010 6d616664 632f6c70 36346400 6164642e  mafdc/lp64d.add.
 0020 63002d6d 61726368 3d727636 34676300  c.-march=rv64gc.
 0030 2d6d6162 693d6c70 36346400 2d6d7475  -mabi=lp64d.-mtu
 0040 6e653d72 6f636b65 74002d6d 61726368  ne=rocket.-march
 0050 3d727636 34696d61 66646300 2d617578  =rv64imafdc.-aux
 0060 62617365 2d737472 69702061 64642e63  base-strip add.c
 0070 2e53002d 67002d4f 30002d57 6572726f  .S.-g.-O0.-Werro
 0080 72002d66 76657262 6f73652d 61736d00  r.-fverbose-asm.
 0090 2d667265 636f7264 2d676363 2d737769  -frecord-gcc-swi
 00a0 74636865 7300                        tches.          
Contents of section .debug_info:
 0000 7d000000 04000000 00000801 00000000  }...............
 0010 0c000000 00000000 00000000 00000000  ................
 0020 00000000 00000000 00000000 00026164  ..............ad
 0030 64000103 05790000 00000000 00000000  d....y..........
 0040 00000000 00000000 00019c79 00000003  ...........y....
 0050 61000103 0e790000 0002915c 03620001  a....y.....\.b..
 0060 03157900 00000291 58047265 74000104  ..y.....X.ret...
 0070 09790000 0002916c 00050405 696e7400  .y.....l....int.
 0080 00                                   .               
Contents of section .debug_abbrev:
 0000 01110125 0e130b03 0e1b0e11 01120710  ...%............
 0010 17000002 2e013f19 03083a0b 3b0b390b  ......?...:.;.9.
 0020 27194913 11011207 40189642 19011300  '.I.....@..B....
 0030 00030500 03083a0b 3b0b390b 49130218  ......:.;.9.I...
 0040 00000434 0003083a 0b3b0b39 0b491302  ...4...:.;.9.I..
 0050 18000005 24000b0b 3e0b0308 000000    ....$...>...... 
Contents of section .debug_aranges:
 0000 2c000000 02000000 00000800 00000000  ,...............
 0010 00000000 00000000 00000000 00000000  ................
 0020 00000000 00000000 00000000 00000000  ................
Contents of section .debug_line:
 0000 4e000000 03001c00 00000101 fb0e0d00  N...............
 0010 01010101 00000001 00000100 6164642e  ............add.
 0020 63000000 00000517 00090200 00000000  c...............
 0030 00000014 050f0301 09000001 050c0301  ................
 0040 09000001 05010301 09000001 09000000  ................
 0050 0101                                 ..              
Contents of section .debug_str:
 0000 474e5520 43313720 31302e31 2e30202d  GNU C17 10.1.0 -
 0010 6d617263 683d7276 36346763 202d6d61  march=rv64gc -ma
 0020 62693d6c 70363464 202d6d74 756e653d  bi=lp64d -mtune=
 0030 726f636b 6574202d 6d617263 683d7276  rocket -march=rv
 0040 3634696d 61666463 202d6720 2d4f3020  64imafdc -g -O0 
 0050 2d667265 636f7264 2d676363 2d737769  -frecord-gcc-swi
 0060 74636865 73002f68 6f6d652f 75736572  tches./home/user
 0070 2f636f64 652f7269 7363762f 64776172  /code/riscv/dwar
 0080 665f7265 6c6f6361 74696f6e 73006164  f_relocations.ad
 0090 642e6300                             d.c.            
Contents of section .comment:
 0000 00474343 3a202847 4e552920 31302e31  .GCC: (GNU) 10.1
 0010 2e3000                               .0.             
Contents of section .debug_frame:
 0000 0c000000 ffffffff 0300017c 010d0200  ...........|....
 0010 2c000000 00000000 00000000 00000000  ,...............
 0020 00000000 00000000 420e3044 81028804  ........B.0D....
 0030 420c0800 70c142c8 0c023042 0e000000  B...p.B...0B....
Contents of section .riscv.attributes:
 0000 41340000 00726973 63760001 2a000000  A4...riscv..*...
 0010 04100572 76363469 3270305f 6d327030  ...rv64i2p0_m2p0
 0020 5f613270 305f6632 70305f64 3270305f  _a2p0_f2p0_d2p0_
 0030 63327030 00                          c2p0.           

Disassembly of section .text:

0000000000000000 <add>:
   0:	7179                	c.addi16sp	sp,-48
   2:	f406                	c.sdsp	ra,40(sp)
   4:	f022                	c.sdsp	s0,32(sp)
   6:	1800                	c.addi4spn	s0,sp,48
   8:	87aa                	c.mv	a5,a0
   a:	872e                	c.mv	a4,a1
   c:	fcf42e23          	sw	a5,-36(s0)
  10:	87ba                	c.mv	a5,a4
  12:	fcf42c23          	sw	a5,-40(s0)
  16:	fd842703          	lw	a4,-40(s0)
  1a:	fdc42783          	lw	a5,-36(s0)
  1e:	85ba                	c.mv	a1,a4
  20:	853e                	c.mv	a0,a5
  22:	00000097          	auipc	ra,0x0	22: R_RISCV_CALL	externFunc
	22: R_RISCV_RELAX	*ABS*
  26:	000080e7          	jalr	ra,0(ra) # 22 <add+0x22>
  2a:	87aa                	c.mv	a5,a0
  2c:	fef42623          	sw	a5,-20(s0)
  30:	fec42783          	lw	a5,-20(s0)
  34:	853e                	c.mv	a0,a5
  36:	70a2                	c.ldsp	ra,40(sp)
  38:	7402                	c.ldsp	s0,32(sp)
  3a:	6145                	c.addi16sp	sp,48
  3c:	8082                	c.jr	ra

000000000000003e <.LFE0>:
  3e:	0000                	c.unimp

Disassembly of section .GCC.command.line:

0000000000000000 <.GCC.command.line>:
   0:	692d                	c.lui	s2,0xb
   2:	756d                	c.lui	a0,0xffffb
   4:	746c                	c.ld	a1,232(s0)
   6:	6c69                	c.lui	s8,0x1a
   8:	6269                	c.lui	tp,0x1a
   a:	7220                	c.ld	s0,96(a2)
   c:	3676                	c.fldsp	fa2,376(sp)
   e:	6934                	c.ld	a3,80(a0)
  10:	616d                	c.addi16sp	sp,240
  12:	6466                	c.ldsp	s0,88(sp)
  14:	706c2f63          	0x706c2f63
  18:	3436                	c.fldsp	fs0,360(sp)
  1a:	0064                	c.addi4spn	s1,sp,12
  1c:	6461                	c.lui	s0,0x18
  1e:	2e64                	c.fld	fs1,216(a2)
  20:	6d2d0063          	beq	s10,s2,6e0 <.LASF1+0x652>
  24:	7261                	c.lui	tp,0xffff8
  26:	723d6863          	bltu	s10,gp,756 <.LASF1+0x6c8>
  2a:	3676                	c.fldsp	fa2,376(sp)
  2c:	6734                	c.ld	a3,72(a4)
  2e:	6d2d0063          	beq	s10,s2,6ee <.LASF1+0x660>
  32:	6261                	c.lui	tp,0x18
  34:	3d69                	c.addiw	s10,-6
  36:	706c                	c.ld	a1,224(s0)
  38:	3436                	c.fldsp	fs0,360(sp)
  3a:	0064                	c.addi4spn	s1,sp,12
  3c:	6d2d                	c.lui	s10,0xb
  3e:	7574                	c.ld	a3,232(a0)
  40:	656e                	c.ldsp	a0,216(sp)
  42:	723d                	c.lui	tp,0xfffef
  44:	656b636f          	jal	t1,b669a <.LASF1+0xb660c>
  48:	0074                	c.addi4spn	a3,sp,12
  4a:	6d2d                	c.lui	s10,0xb
  4c:	7261                	c.lui	tp,0xffff8
  4e:	723d6863          	bltu	s10,gp,77e <.LASF1+0x6f0>
  52:	3676                	c.fldsp	fa2,376(sp)
  54:	6934                	c.ld	a3,80(a0)
  56:	616d                	c.addi16sp	sp,240
  58:	6466                	c.ldsp	s0,88(sp)
  5a:	612d0063          	beq	s10,s2,65a <.LASF1+0x5cc>
  5e:	7875                	c.lui	a6,0xffffd
  60:	6162                	c.ldsp	sp,24(sp)
  62:	732d6573          	csrrsi	a0,0x732,26
  66:	7274                	c.ld	a3,224(a2)
  68:	7069                	c.lui	zero,0xffffa
  6a:	6120                	c.ld	s0,64(a0)
  6c:	6464                	c.ld	s1,200(s0)
  6e:	632e                	c.ldsp	t1,200(sp)
  70:	532e                	c.lwsp	t1,232(sp)
  72:	2d00                	c.fld	fs0,24(a0)
  74:	4f2d0067          	jalr	zero,1266(s10) # b4f2 <.LASF1+0xb464>
  78:	0030                	c.addi4spn	a2,sp,8
  7a:	572d                	c.li	a4,-21
  7c:	7265                	c.lui	tp,0xffff9
  7e:	6f72                	c.ldsp	t5,280(sp)
  80:	0072                	c.slli	zero,0x1c
  82:	662d                	c.lui	a2,0xb
  84:	6576                	c.ldsp	a0,344(sp)
  86:	6272                	c.ldsp	tp,280(sp)
  88:	2d65736f          	jal	t1,5735e <.LASF1+0x572d0>
  8c:	7361                	c.lui	t1,0xffff8
  8e:	006d                	c.addi	zero,27
  90:	662d                	c.lui	a2,0xb
  92:	6572                	c.ldsp	a0,280(sp)
  94:	64726f63          	bltu	tp,t2,6f2 <.LASF1+0x664>
  98:	672d                	c.lui	a4,0xb
  9a:	732d6363          	bltu	s10,s2,7c0 <.LASF1+0x732>
  9e:	63746977          	0x63746977
  a2:	6568                	c.ld	a0,200(a0)
  a4:	          	ecall
